; Function Attrs: mustprogress uwtable
define hidden void @_ZN4lean12constant_valC2ERKNS_4nameERKNS_8list_refIS1_EERKNS_4exprE(ptr noundef nonnull writeonly align 8 captures(none) dereferenceable(8) initializes((0, 8)) %0, ptr noundef nonnull align 8 dereferenceable(8) %1, ptr noundef nonnull align 8 dereferenceable(8) %2, ptr noundef nonnull align 8 dereferenceable(8) %3) unnamed_addr #0 align 2 personality ptr @__gxx_personality_v0 {
_ZN4lean10object_refD2Ev.exit:
  %4 = alloca %"class.lean::object_ref", align 8
  call void @llvm.lifetime.start.p0(i64 8, ptr nonnull %4) #16
  call void @_ZN4lean8mk_cnstrEjRKNS_10object_refES2_S2_j(ptr dead_on_unwind nonnull writable sret(%"class.lean::object_ref") align 8 %4, i32 noundef 0, ptr noundef nonnull align 8 dereferenceable(8) %1, ptr noundef nonnull align 8 dereferenceable(8) %2, ptr noundef nonnull align 8 dereferenceable(8) %3, i32 noundef 0)
  %5 = load ptr, ptr %4, align 8, !tbaa !3
  store ptr %5, ptr %0, align 8, !tbaa !3
  call void @llvm.lifetime.end.p0(i64 8, ptr nonnull %4) #16
  ret void
}